target datalayout = "e-m:e-p270:32:32-p271:32:32-p272:64:64-i64:64-i128:128-f80:128-n8:16:32:64-S128"
target triple = "x86_64-pc-linux-gnu"

%struct.tdefl_compressor = type { ptr, ptr, i32, [2 x i32], i32, i32, i32, i32, i32, ptr, ptr, ptr, ptr, i32, i32, i32, i32, i32, i32, i32, i32, i32, i32, i32, i32, i32, i32, ptr, ptr, ptr, ptr, i32, ptr, i64, i64, [33025 x i8], [3 x [288 x i16]], [3 x [288 x i16]], [3 x [288 x i8]], [65536 x i8], [32768 x i16], [32768 x i16], [85196 x i8] }
%struct.mz_zip_archive = type { i64, i64, i32, i32, i32, i32, i64, ptr, ptr, ptr, ptr, ptr, ptr, ptr, ptr, ptr }
%struct.mz_zip_writer_add_state = type { ptr, i64, i64 }
%struct.zip_t = type { %struct.mz_zip_archive, i32, %struct.zip_entry_t }
%struct.zip_entry_t = type { i64, ptr, i64, i64, i32, i64, [30 x i8], i64, i16, %struct.mz_zip_writer_add_state, %struct.tdefl_compressor, i32, i64 }

; Function Attrs: nounwind uwtable
define i32 @zip_entry_extract(ptr noundef %0, ptr noundef %1, ptr noundef %2) #0 {
  %4 = alloca i32, align 4
  %5 = alloca ptr, align 8
  %6 = alloca ptr, align 8
  %7 = alloca ptr, align 8
  %8 = alloca ptr, align 8
  %9 = alloca i32, align 4
  %10 = alloca i32, align 4
  store ptr %0, ptr %5, align 8
  store ptr %1, ptr %6, align 8
  store ptr %2, ptr %7, align 8
  call void @llvm.lifetime.start.p0(i64 8, ptr %8) #13
  store ptr null, ptr %8, align 8
  call void @llvm.lifetime.start.p0(i64 4, ptr %9) #13
  %11 = load ptr, ptr %5, align 8
  %12 = icmp ne ptr %11, null
  br i1 %12, label %14, label %13

13:                                               ; preds = %3
  store i32 -1, ptr %4, align 4
  store i32 1, ptr %10, align 4
  br label %41

14:                                               ; preds = %3
  %15 = load ptr, ptr %5, align 8
  %16 = getelementptr inbounds nuw %struct.zip_t, ptr %15, i32 0, i32 0
  store ptr %16, ptr %8, align 8
  %17 = load ptr, ptr %8, align 8
  %18 = getelementptr inbounds nuw %struct.mz_zip_archive, ptr %17, i32 0, i32 3
  %19 = load i32, ptr %18, align 4
  %20 = icmp ne i32 %19, 1
  br i1 %20, label %27, label %21

21:                                               ; preds = %14
  %22 = load ptr, ptr %5, align 8
  %23 = getelementptr inbounds nuw %struct.zip_t, ptr %22, i32 0, i32 2
  %24 = getelementptr inbounds nuw %struct.zip_entry_t, ptr %23, i32 0, i32 0
  %25 = load i64, ptr %24, align 8
  %26 = icmp slt i64 %25, 0
  br i1 %26, label %27, label %28

27:                                               ; preds = %21, %14
  store i32 -3, ptr %4, align 4
  store i32 1, ptr %10, align 4
  br label %41

28:                                               ; preds = %21
  %29 = load ptr, ptr %5, align 8
  %30 = getelementptr inbounds nuw %struct.zip_t, ptr %29, i32 0, i32 2
  %31 = getelementptr inbounds nuw %struct.zip_entry_t, ptr %30, i32 0, i32 0
  %32 = load i64, ptr %31, align 8
  %33 = trunc i64 %32 to i32
  store i32 %33, ptr %9, align 4
  %34 = load ptr, ptr %8, align 8
  %35 = load i32, ptr %9, align 4
  %36 = load ptr, ptr %6, align 8
  %37 = load ptr, ptr %7, align 8
  %38 = call i32 @mz_zip_reader_extract_to_callback(ptr noundef %34, i32 noundef %35, ptr noundef %36, ptr noundef %37, i32 noundef 0)
  %39 = icmp ne i32 %38, 0
  %40 = select i1 %39, i32 0, i32 -10
  store i32 %40, ptr %4, align 4
  store i32 1, ptr %10, align 4
  br label %41

41:                                               ; preds = %28, %27, %13
  call void @llvm.lifetime.end.p0(i64 4, ptr %9) #13
  call void @llvm.lifetime.end.p0(i64 8, ptr %8) #13
  %42 = load i32, ptr %4, align 4
  ret i32 %42
}