; Function Attrs: nounwind uwtable
define range(i32 -10, 1) i32 @zip_entry_extract(ptr noundef captures(address_is_null) %0, ptr noundef captures(address_is_null) %1, ptr noundef %2) local_unnamed_addr #8 {
  %.not = icmp eq ptr %0, null
  br i1 %.not, label %15, label %4

4:                                                ; preds = %3
  %5 = getelementptr inbounds nuw i8, ptr %0, i64 20
  %6 = load i32, ptr %5, align 4
  %.not11 = icmp eq i32 %6, 1
  br i1 %.not11, label %7, label %15

7:                                                ; preds = %4
  %8 = getelementptr inbounds nuw i8, ptr %0, i64 120
  %9 = load i64, ptr %8, align 8
  %10 = icmp slt i64 %9, 0
  br i1 %10, label %15, label %11

11:                                               ; preds = %7
  %12 = trunc i64 %9 to i32
  %13 = tail call i32 @mz_zip_reader_extract_to_callback(ptr noundef nonnull %0, i32 noundef %12, ptr noundef %1, ptr noundef %2, i32 noundef 0)
  %.not12 = icmp eq i32 %13, 0
  %14 = select i1 %.not12, i32 -10, i32 0
  br label %15

15:                                               ; preds = %4, %7, %3, %11
  %.0 = phi i32 [ %14, %11 ], [ -1, %3 ], [ -3, %7 ], [ -3, %4 ]
  ret i32 %.0
}